; ModuleID = 'source-C-CXX/11/288.cpp'
source_filename = "source-C-CXX/11/288.cpp"
target datalayout = "e-m:e-p270:32:32-p271:32:32-p272:64:64-i64:64-f80:128-n8:16:32:64-S128"
target triple = "x86_64-pc-linux-gnu"

%"class.std::ios_base::Init" = type { i8 }
%"class.std::basic_istream" = type { i32 (...)**, i64, %"class.std::basic_ios" }
%"class.std::basic_ios" = type { %"class.std::ios_base", %"class.std::basic_ostream"*, i8, i8, %"class.std::basic_streambuf"*, %"class.std::ctype"*, %"class.std::num_put"*, %"class.std::num_get"* }
%"class.std::ios_base" = type { i32 (...)**, i64, i64, i32, i32, i32, %"struct.std::ios_base::_Callback_list"*, %"struct.std::ios_base::_Words", [8 x %"struct.std::ios_base::_Words"], i32, %"struct.std::ios_base::_Words"*, %"class.std::locale" }
%"struct.std::ios_base::_Callback_list" = type { %"struct.std::ios_base::_Callback_list"*, void (i32, %"class.std::ios_base"*, i32)*, i32, i32 }
%"struct.std::ios_base::_Words" = type { i8*, i64 }
%"class.std::locale" = type { %"class.std::locale::_Impl"* }
%"class.std::locale::_Impl" = type { i32, %"class.std::locale::facet"**, i64, %"class.std::locale::facet"**, i8** }
%"class.std::locale::facet" = type <{ i32 (...)**, i32, [4 x i8] }>
%"class.std::basic_ostream" = type { i32 (...)**, %"class.std::basic_ios" }
%"class.std::basic_streambuf" = type { i32 (...)**, i8*, i8*, i8*, i8*, i8*, i8*, %"class.std::locale" }
%"class.std::ctype" = type <{ %"class.std::locale::facet.base", [4 x i8], %struct.__locale_struct*, i8, [7 x i8], i32*, i32*, i16*, i8, [256 x i8], [256 x i8], i8, [6 x i8] }>
%"class.std::locale::facet.base" = type <{ i32 (...)**, i32 }>
%struct.__locale_struct = type { [13 x %struct.__locale_data*], i16*, i32*, i32*, [13 x i8*] }
%struct.__locale_data = type opaque
%"class.std::num_put" = type { %"class.std::locale::facet.base", [4 x i8] }
%"class.std::num_get" = type { %"class.std::locale::facet.base", [4 x i8] }

@_ZStL8__ioinit = internal global %"class.std::ios_base::Init" zeroinitializer, align 1
@__dso_handle = external hidden global i8
@_ZSt3cin = external global %"class.std::basic_istream", align 8
@_ZSt4cout = external global %"class.std::basic_ostream", align 8
@llvm.global_ctors = appending global [1 x { i32, void ()*, i8* }] [{ i32, void ()*, i8* } { i32 65535, void ()* @_GLOBAL__sub_I_288.cpp, i8* null }]

declare void @_ZNSt8ios_base4InitC1Ev(%"class.std::ios_base::Init"* nonnull align 1 dereferenceable(1)) unnamed_addr #0

; Function Attrs: nounwind
declare void @_ZNSt8ios_base4InitD1Ev(%"class.std::ios_base::Init"* nonnull align 1 dereferenceable(1)) unnamed_addr #1

; Function Attrs: nofree nounwind
declare i32 @__cxa_atexit(void (i8*)*, i8*, i8*) local_unnamed_addr #2

; Function Attrs: mustprogress norecurse sspstrong uwtable
define dso_local i32 @main() local_unnamed_addr #3 {
  %1 = alloca [16 x i32], align 16
  %2 = bitcast [16 x i32]* %1 to i8*
  call void @llvm.lifetime.start.p0i8(i64 64, i8* nonnull %2) #8
  %3 = getelementptr inbounds [16 x i32], [16 x i32]* %1, i64 0, i64 0
  %4 = call nonnull align 8 dereferenceable(16) %"class.std::basic_istream"* @_ZNSirsERi(%"class.std::basic_istream"* nonnull align 8 dereferenceable(16) @_ZSt3cin, i32* nonnull align 4 dereferenceable(4) %3)
  %5 = load i32, i32* %3, align 16, !tbaa !5
  %6 = icmp eq i32 %5, -1
  br i1 %6, label %107, label %7

7:                                                ; preds = %0, %14
  %8 = phi i64 [ %15, %14 ], [ 0, %0 ]
  %9 = add nuw nsw i64 %8, 1
  %10 = getelementptr inbounds [16 x i32], [16 x i32]* %1, i64 0, i64 %9
  %11 = call nonnull align 8 dereferenceable(16) %"class.std::basic_istream"* @_ZNSirsERi(%"class.std::basic_istream"* nonnull align 8 dereferenceable(16) @_ZSt3cin, i32* nonnull align 4 dereferenceable(4) %10)
  %12 = load i32, i32* %10, align 4, !tbaa !5
  %13 = icmp eq i32 %12, 0
  br i1 %13, label %16, label %14

14:                                               ; preds = %7, %100
  %15 = phi i64 [ %9, %7 ], [ 0, %100 ]
  br label %7, !llvm.loop !9

16:                                               ; preds = %7
  %17 = add nuw i64 %8, 1
  %18 = and i64 %17, 4294967295
  %19 = icmp ult i64 %18, 8
  %20 = and i64 %17, 7
  %21 = sub nsw i64 %18, %20
  %22 = icmp eq i64 %20, 0
  br label %23

23:                                               ; preds = %16, %69
  %24 = phi i64 [ 0, %16 ], [ %71, %69 ]
  %25 = phi i32 [ 0, %16 ], [ %70, %69 ]
  %26 = getelementptr inbounds [16 x i32], [16 x i32]* %1, i64 0, i64 %24
  %27 = load i32, i32* %26, align 4, !tbaa !5
  %28 = shl nsw i32 %27, 1
  br i1 %19, label %56, label %29

29:                                               ; preds = %23
  %30 = insertelement <4 x i32> <i32 poison, i32 0, i32 0, i32 0>, i32 %25, i32 0
  %31 = insertelement <4 x i32> poison, i32 %28, i32 0
  %32 = shufflevector <4 x i32> %31, <4 x i32> poison, <4 x i32> zeroinitializer
  %33 = insertelement <4 x i32> poison, i32 %28, i32 0
  %34 = shufflevector <4 x i32> %33, <4 x i32> poison, <4 x i32> zeroinitializer
  br label %35

35:                                               ; preds = %35, %29
  %36 = phi i64 [ 0, %29 ], [ %51, %35 ]
  %37 = phi <4 x i32> [ %30, %29 ], [ %49, %35 ]
  %38 = phi <4 x i32> [ zeroinitializer, %29 ], [ %50, %35 ]
  %39 = getelementptr inbounds [16 x i32], [16 x i32]* %1, i64 0, i64 %36
  %40 = bitcast i32* %39 to <4 x i32>*
  %41 = load <4 x i32>, <4 x i32>* %40, align 16, !tbaa !5
  %42 = getelementptr inbounds i32, i32* %39, i64 4
  %43 = bitcast i32* %42 to <4 x i32>*
  %44 = load <4 x i32>, <4 x i32>* %43, align 16, !tbaa !5
  %45 = icmp eq <4 x i32> %41, %32
  %46 = icmp eq <4 x i32> %44, %34
  %47 = zext <4 x i1> %45 to <4 x i32>
  %48 = zext <4 x i1> %46 to <4 x i32>
  %49 = add <4 x i32> %37, %47
  %50 = add <4 x i32> %38, %48
  %51 = add nuw i64 %36, 8
  %52 = icmp eq i64 %51, %21
  br i1 %52, label %53, label %35, !llvm.loop !11

53:                                               ; preds = %35
  %54 = add <4 x i32> %50, %49
  %55 = call i32 @llvm.vector.reduce.add.v4i32(<4 x i32> %54)
  br i1 %22, label %69, label %56

56:                                               ; preds = %23, %53
  %57 = phi i64 [ 0, %23 ], [ %21, %53 ]
  %58 = phi i32 [ %25, %23 ], [ %55, %53 ]
  br label %59

59:                                               ; preds = %56, %59
  %60 = phi i64 [ %67, %59 ], [ %57, %56 ]
  %61 = phi i32 [ %66, %59 ], [ %58, %56 ]
  %62 = getelementptr inbounds [16 x i32], [16 x i32]* %1, i64 0, i64 %60
  %63 = load i32, i32* %62, align 4, !tbaa !5
  %64 = icmp eq i32 %63, %28
  %65 = zext i1 %64 to i32
  %66 = add nsw i32 %61, %65
  %67 = add nuw nsw i64 %60, 1
  %68 = icmp eq i64 %67, %18
  br i1 %68, label %69, label %59, !llvm.loop !13

69:                                               ; preds = %59, %53
  %70 = phi i32 [ %55, %53 ], [ %66, %59 ]
  %71 = add nuw nsw i64 %24, 1
  %72 = icmp eq i64 %71, %18
  br i1 %72, label %73, label %23, !llvm.loop !15

73:                                               ; preds = %69
  %74 = call nonnull align 8 dereferenceable(8) %"class.std::basic_ostream"* @_ZNSolsEi(%"class.std::basic_ostream"* nonnull align 8 dereferenceable(8) @_ZSt4cout, i32 %70)
  %75 = bitcast %"class.std::basic_ostream"* %74 to i8**
  %76 = load i8*, i8** %75, align 8, !tbaa !16
  %77 = getelementptr i8, i8* %76, i64 -24
  %78 = bitcast i8* %77 to i64*
  %79 = load i64, i64* %78, align 8
  %80 = bitcast %"class.std::basic_ostream"* %74 to i8*
  %81 = add nsw i64 %79, 240
  %82 = getelementptr inbounds i8, i8* %80, i64 %81
  %83 = bitcast i8* %82 to %"class.std::ctype"**
  %84 = load %"class.std::ctype"*, %"class.std::ctype"** %83, align 8, !tbaa !18
  %85 = icmp eq %"class.std::ctype"* %84, null
  br i1 %85, label %86, label %87

86:                                               ; preds = %73
  call void @_ZSt16__throw_bad_castv() #9
  unreachable

87:                                               ; preds = %73
  %88 = getelementptr inbounds %"class.std::ctype", %"class.std::ctype"* %84, i64 0, i32 8
  %89 = load i8, i8* %88, align 8, !tbaa !22
  %90 = icmp eq i8 %89, 0
  br i1 %90, label %94, label %91

91:                                               ; preds = %87
  %92 = getelementptr inbounds %"class.std::ctype", %"class.std::ctype"* %84, i64 0, i32 9, i64 10
  %93 = load i8, i8* %92, align 1, !tbaa !24
  br label %100

94:                                               ; preds = %87
  call void @_ZNKSt5ctypeIcE13_M_widen_initEv(%"class.std::ctype"* nonnull align 8 dereferenceable(570) %84)
  %95 = bitcast %"class.std::ctype"* %84 to i8 (%"class.std::ctype"*, i8)***
  %96 = load i8 (%"class.std::ctype"*, i8)**, i8 (%"class.std::ctype"*, i8)*** %95, align 8, !tbaa !16
  %97 = getelementptr inbounds i8 (%"class.std::ctype"*, i8)*, i8 (%"class.std::ctype"*, i8)** %96, i64 6
  %98 = load i8 (%"class.std::ctype"*, i8)*, i8 (%"class.std::ctype"*, i8)** %97, align 8
  %99 = call signext i8 %98(%"class.std::ctype"* nonnull align 8 dereferenceable(570) %84, i8 signext 10)
  br label %100

100:                                              ; preds = %91, %94
  %101 = phi i8 [ %93, %91 ], [ %99, %94 ]
  %102 = call nonnull align 8 dereferenceable(8) %"class.std::basic_ostream"* @_ZNSo3putEc(%"class.std::basic_ostream"* nonnull align 8 dereferenceable(8) %74, i8 signext %101)
  %103 = call nonnull align 8 dereferenceable(8) %"class.std::basic_ostream"* @_ZNSo5flushEv(%"class.std::basic_ostream"* nonnull align 8 dereferenceable(8) %102)
  %104 = call nonnull align 8 dereferenceable(16) %"class.std::basic_istream"* @_ZNSirsERi(%"class.std::basic_istream"* nonnull align 8 dereferenceable(16) @_ZSt3cin, i32* nonnull align 4 dereferenceable(4) %3)
  %105 = load i32, i32* %3, align 16, !tbaa !5
  %106 = icmp eq i32 %105, -1
  br i1 %106, label %107, label %14

107:                                              ; preds = %100, %0
  call void @llvm.lifetime.end.p0i8(i64 64, i8* nonnull %2) #8
  ret i32 0
}

; Function Attrs: argmemonly mustprogress nofree nosync nounwind willreturn
declare void @llvm.lifetime.start.p0i8(i64 immarg, i8* nocapture) #4

declare nonnull align 8 dereferenceable(16) %"class.std::basic_istream"* @_ZNSirsERi(%"class.std::basic_istream"* nonnull align 8 dereferenceable(16), i32* nonnull align 4 dereferenceable(4)) local_unnamed_addr #0

declare nonnull align 8 dereferenceable(8) %"class.std::basic_ostream"* @_ZNSolsEi(%"class.std::basic_ostream"* nonnull align 8 dereferenceable(8), i32) local_unnamed_addr #0

; Function Attrs: argmemonly mustprogress nofree nosync nounwind willreturn
declare void @llvm.lifetime.end.p0i8(i64 immarg, i8* nocapture) #4

declare nonnull align 8 dereferenceable(8) %"class.std::basic_ostream"* @_ZNSo3putEc(%"class.std::basic_ostream"* nonnull align 8 dereferenceable(8), i8 signext) local_unnamed_addr #0

declare nonnull align 8 dereferenceable(8) %"class.std::basic_ostream"* @_ZNSo5flushEv(%"class.std::basic_ostream"* nonnull align 8 dereferenceable(8)) local_unnamed_addr #0

; Function Attrs: noreturn
declare void @_ZSt16__throw_bad_castv() local_unnamed_addr #5

declare void @_ZNKSt5ctypeIcE13_M_widen_initEv(%"class.std::ctype"* nonnull align 8 dereferenceable(570)) local_unnamed_addr #0

; Function Attrs: sspstrong uwtable
define internal void @_GLOBAL__sub_I_288.cpp() #6 section ".text.startup" {
  tail call void @_ZNSt8ios_base4InitC1Ev(%"class.std::ios_base::Init"* nonnull align 1 dereferenceable(1) @_ZStL8__ioinit)
  %1 = tail call i32 @__cxa_atexit(void (i8*)* bitcast (void (%"class.std::ios_base::Init"*)* @_ZNSt8ios_base4InitD1Ev to void (i8*)*), i8* getelementptr inbounds (%"class.std::ios_base::Init", %"class.std::ios_base::Init"* @_ZStL8__ioinit, i64 0, i32 0), i8* nonnull @__dso_handle) #8
  ret void
}

; Function Attrs: nofree nosync nounwind readnone willreturn
declare i32 @llvm.vector.reduce.add.v4i32(<4 x i32>) #7


!llvm.module.flags = !{!0, !1, !2, !3}
!llvm.ident = !{!4}

!0 = !{i32 1, !"wchar_size", i32 4}
!1 = !{i32 7, !"PIC Level", i32 2}
!2 = !{i32 7, !"PIE Level", i32 2}
!3 = !{i32 7, !"uwtable", i32 1}
!4 = !{!"clang version 13.0.0"}
!5 = !{!6, !6, i64 0}
!6 = !{!"int", !7, i64 0}
!7 = !{!"omnipotent char", !8, i64 0}
!8 = !{!"Simple C++ TBAA"}
!9 = distinct !{!9, !10}
!10 = !{!"llvm.loop.mustprogress"}
!11 = distinct !{!11, !10, !12}
!12 = !{!"llvm.loop.isvectorized", i32 1}
!13 = distinct !{!13, !10, !14, !12}
!14 = !{!"llvm.loop.unroll.runtime.disable"}
!15 = distinct !{!15, !10}
!16 = !{!17, !17, i64 0}
!17 = !{!"vtable pointer", !8, i64 0}
!18 = !{!19, !20, i64 240}
!19 = !{!"_ZTSSt9basic_iosIcSt11char_traitsIcEE", !20, i64 216, !7, i64 224, !21, i64 225, !20, i64 232, !20, i64 240, !20, i64 248, !20, i64 256}
!20 = !{!"any pointer", !7, i64 0}
!21 = !{!"bool", !7, i64 0}
!22 = !{!23, !7, i64 56}
!23 = !{!"_ZTSSt5ctypeIcE", !20, i64 16, !21, i64 24, !20, i64 32, !20, i64 40, !20, i64 48, !7, i64 56, !7, i64 57, !7, i64 313, !7, i64 569}
!24 = !{!7, !7, i64 0}
